target datalayout = "e-m:e-p270:32:32-p271:32:32-p272:64:64-i64:64-i128:128-f80:128-n8:16:32:64-S128"
target triple = "x86_64-pc-linux-gnu"

%union.pthread_mutex_t = type { %struct.__pthread_mutex_s }
%struct.__pthread_mutex_s = type { i32, i32, i32, i32, i32, i16, i16, %struct.__pthread_internal_list }
%struct.__pthread_internal_list = type { ptr, ptr }
%struct.slurmdbd_conn_t = type { ptr, ptr, %union.pthread_mutex_t, ptr, ptr }
%struct.persist_conn_t = type { ptr, i32, i32, i8, ptr, ptr, ptr, i64, i16, i32, i16, i8, i32, i32, ptr, i16, ptr, i64, i32, ptr, %struct.slurm_trigger_callbacks_t, i16 }
%struct.slurm_trigger_callbacks_t = type { ptr, ptr, ptr, ptr, ptr }
%struct.persist_msg_t = type { ptr, ptr, i16 }
%struct.dbd_list_msg_t = type { ptr, i32 }
%struct.dbd_cond_msg_t = type { ptr }

@.str.69 = private unnamed_addr constant [37 x i8] c"DBD_GET_INSTANCES: called in CONN %d\00", align 1

; Function Attrs: nounwind uwtable
define internal i32 @_get_instances(ptr noundef %0, ptr noundef %1, ptr noundef %2) #0 {
  %4 = alloca ptr, align 8
  %5 = alloca ptr, align 8
  %6 = alloca ptr, align 8
  %7 = alloca ptr, align 8
  %8 = alloca %struct.dbd_list_msg_t, align 8
  %9 = alloca i32, align 4
  store ptr %0, ptr %4, align 8
  store ptr %1, ptr %5, align 8
  store ptr %2, ptr %6, align 8
  call void @llvm.lifetime.start.p0(i64 8, ptr %7) #8
  %10 = load ptr, ptr %5, align 8
  %11 = getelementptr inbounds nuw %struct.persist_msg_t, ptr %10, i32 0, i32 1
  %12 = load ptr, ptr %11, align 8
  store ptr %12, ptr %7, align 8
  call void @llvm.lifetime.start.p0(i64 16, ptr %8) #8
  call void @llvm.memset.p0.i64(ptr align 8 %8, i8 0, i64 16, i1 false)
  call void @llvm.lifetime.start.p0(i64 4, ptr %9) #8
  store i32 0, ptr %9, align 4
  br label %13

13:                                               ; preds = %3
  br label %14

14:                                               ; preds = %13
  %15 = call i32 @get_log_level()
  %16 = icmp sge i32 %15, 6
  br i1 %16, label %17, label %23

17:                                               ; preds = %14
  %18 = load ptr, ptr %4, align 8
  %19 = getelementptr inbounds nuw %struct.slurmdbd_conn_t, ptr %18, i32 0, i32 0
  %20 = load ptr, ptr %19, align 8
  %21 = getelementptr inbounds nuw %struct.persist_conn_t, ptr %20, i32 0, i32 9
  %22 = load i32, ptr %21, align 4
  call void (i32, ptr, ...) @log_var(i32 noundef 6, ptr noundef @.str.69, i32 noundef %22)
  br label %23

23:                                               ; preds = %17, %14
  br label %24

24:                                               ; preds = %23
  br label %25

25:                                               ; preds = %24
  br label %26

26:                                               ; preds = %25
  br label %27

27:                                               ; preds = %26
  %28 = load ptr, ptr %4, align 8
  %29 = getelementptr inbounds nuw %struct.slurmdbd_conn_t, ptr %28, i32 0, i32 3
  %30 = load ptr, ptr %29, align 8
  %31 = load ptr, ptr %4, align 8
  %32 = getelementptr inbounds nuw %struct.slurmdbd_conn_t, ptr %31, i32 0, i32 0
  %33 = load ptr, ptr %32, align 8
  %34 = getelementptr inbounds nuw %struct.persist_conn_t, ptr %33, i32 0, i32 1
  %35 = load i32, ptr %34, align 8
  %36 = load ptr, ptr %7, align 8
  %37 = getelementptr inbounds nuw %struct.dbd_cond_msg_t, ptr %36, i32 0, i32 0
  %38 = load ptr, ptr %37, align 8
  %39 = call ptr @acct_storage_g_get_instances(ptr noundef %30, i32 noundef %35, ptr noundef %38)
  %40 = getelementptr inbounds nuw %struct.dbd_list_msg_t, ptr %8, i32 0, i32 0
  store ptr %39, ptr %40, align 8
  %41 = call ptr @__errno_location() #10
  %42 = load i32, ptr %41, align 4
  %43 = icmp ne i32 %42, 0
  br i1 %43, label %63, label %44

44:                                               ; preds = %27
  %45 = getelementptr inbounds nuw %struct.dbd_list_msg_t, ptr %8, i32 0, i32 0
  %46 = load ptr, ptr %45, align 8
  %47 = icmp ne ptr %46, null
  br i1 %47, label %51, label %48

48:                                               ; preds = %44
  %49 = call ptr @list_create(ptr noundef null)
  %50 = getelementptr inbounds nuw %struct.dbd_list_msg_t, ptr %8, i32 0, i32 0
  store ptr %49, ptr %50, align 8
  br label %51

51:                                               ; preds = %48, %44
  %52 = call ptr @init_buf(i32 noundef 1024)
  %53 = load ptr, ptr %6, align 8
  store ptr %52, ptr %53, align 8
  %54 = load ptr, ptr %6, align 8
  %55 = load ptr, ptr %54, align 8
  call void @pack16(i16 noundef zeroext 1504, ptr noundef %55)
  %56 = load ptr, ptr %4, align 8
  %57 = getelementptr inbounds nuw %struct.slurmdbd_conn_t, ptr %56, i32 0, i32 0
  %58 = load ptr, ptr %57, align 8
  %59 = getelementptr inbounds nuw %struct.persist_conn_t, ptr %58, i32 0, i32 21
  %60 = load i16, ptr %59, align 8
  %61 = load ptr, ptr %6, align 8
  %62 = load ptr, ptr %61, align 8
  call void @slurmdbd_pack_list_msg(ptr noundef %8, i16 noundef zeroext %60, i32 noundef 1504, ptr noundef %62)
  br label %74

63:                                               ; preds = %27
  %64 = load ptr, ptr %4, align 8
  %65 = getelementptr inbounds nuw %struct.slurmdbd_conn_t, ptr %64, i32 0, i32 0
  %66 = load ptr, ptr %65, align 8
  %67 = call ptr @__errno_location() #10
  %68 = load i32, ptr %67, align 4
  %69 = call ptr @__errno_location() #10
  %70 = load i32, ptr %69, align 4
  %71 = call ptr @slurm_strerror(i32 noundef %70)
  %72 = call ptr @slurm_persist_make_rc_msg(ptr noundef %66, i32 noundef %68, ptr noundef %71, i16 noundef zeroext 1503)
  %73 = load ptr, ptr %6, align 8
  store ptr %72, ptr %73, align 8
  store i32 -1, ptr %9, align 4
  br label %74

74:                                               ; preds = %63, %51
  br label %75

75:                                               ; preds = %74
  %76 = getelementptr inbounds nuw %struct.dbd_list_msg_t, ptr %8, i32 0, i32 0
  %77 = load ptr, ptr %76, align 8
  %78 = icmp ne ptr %77, null
  br i1 %78, label %79, label %82

79:                                               ; preds = %75
  %80 = getelementptr inbounds nuw %struct.dbd_list_msg_t, ptr %8, i32 0, i32 0
  %81 = load ptr, ptr %80, align 8
  call void @list_destroy(ptr noundef %81)
  br label %82

82:                                               ; preds = %79, %75
  %83 = getelementptr inbounds nuw %struct.dbd_list_msg_t, ptr %8, i32 0, i32 0
  store ptr null, ptr %83, align 8
  br label %84

84:                                               ; preds = %82
  br label %85

85:                                               ; preds = %84
  %86 = load i32, ptr %9, align 4
  call void @llvm.lifetime.end.p0(i64 4, ptr %9) #8
  call void @llvm.lifetime.end.p0(i64 16, ptr %8) #8
  call void @llvm.lifetime.end.p0(i64 8, ptr %7) #8
  ret i32 %86
}